; Function Attrs: mustprogress nofree norecurse nounwind willreturn memory(read, inaccessiblemem: none) uwtable
define internal range(i32 0, 101) i32 @read_probe(ptr noundef readonly captures(none) %0) #0 {
  %2 = getelementptr inbounds nuw i8, ptr %0, i64 16
  %3 = load i32, ptr %2, align 8, !tbaa !4
  %4 = icmp ugt i32 %3, 54
  br i1 %4, label %5, label %8

5:                                                ; preds = %1
  %6 = getelementptr inbounds nuw i8, ptr %0, i64 8
  %7 = load ptr, ptr %6, align 8, !tbaa !11
  %bcmp = tail call i32 @bcmp(ptr noundef nonnull dereferenceable(55) %7, ptr noundef nonnull dereferenceable(55) @.str.2, i64 55)
  %.not = icmp eq i32 %bcmp, 0
  br i1 %.not, label %9, label %8

8:                                                ; preds = %5, %1
  br label %9

9:                                                ; preds = %5, %8
  %.0 = phi i32 [ 0, %8 ], [ 100, %5 ]
  ret i32 %.0
}